target datalayout = "e-m:e-p270:32:32-p271:32:32-p272:64:64-i64:64-i128:128-f80:128-n8:16:32:64-S128"
target triple = "x86_64-unknown-linux-gnu"

%struct.PropertyInfo = type { ptr, ptr, ptr, i8, ptr, ptr, ptr, ptr, ptr, ptr }
%struct.Property = type { ptr, ptr, i64, i8, i64, i8, %union.anon, i32, ptr, i32, ptr }
%union.anon = type { i64 }
%struct.DeviceClass = type { %struct.ObjectClass, [1 x i64], ptr, ptr, ptr, i8, i8, ptr, ptr, ptr, ptr, ptr }
%struct.ObjectClass = type { ptr, ptr, [4 x ptr], [4 x ptr], ptr, ptr }

@.str.13 = private unnamed_addr constant [4 x i8] c"str\00", align 1
@.str.37 = private unnamed_addr constant [10 x i8] c"legacy-%s\00", align 1

; Function Attrs: nounwind sspstrong uwtable
define internal ptr @field_prop_setter(ptr noundef %info) #0 {
entry:
  %info.addr = alloca ptr, align 8
  store ptr %info, ptr %info.addr, align 8
  %0 = load ptr, ptr %info.addr, align 8
  %set = getelementptr inbounds %struct.PropertyInfo, ptr %0, i32 0, i32 8
  %1 = load ptr, ptr %set, align 8
  %tobool = icmp ne ptr %1, null
  %cond = select i1 %tobool, ptr @field_prop_set, ptr null
  ret ptr %cond
}

; Function Attrs: nounwind sspstrong uwtable
define internal ptr @field_prop_getter(ptr noundef %info) #0 {
entry:
  %info.addr = alloca ptr, align 8
  store ptr %info, ptr %info.addr, align 8
  %0 = load ptr, ptr %info.addr, align 8
  %get = getelementptr inbounds %struct.PropertyInfo, ptr %0, i32 0, i32 7
  %1 = load ptr, ptr %get, align 8
  %tobool = icmp ne ptr %1, null
  %cond = select i1 %tobool, ptr @field_prop_get, ptr null
  ret ptr %cond
}

; Function Attrs: nounwind sspstrong uwtable
define internal void @g_autoptr_cleanup_generic_gfree(ptr noundef %p) #0 {
entry:
  %p.addr = alloca ptr, align 8
  %pp = alloca ptr, align 8
  store ptr %p, ptr %p.addr, align 8
  %0 = load ptr, ptr %p.addr, align 8
  store ptr %0, ptr %pp, align 8
  %1 = load ptr, ptr %pp, align 8
  %2 = load ptr, ptr %1, align 8
  call void @g_free(ptr noundef %2)
  ret void
}

; Function Attrs: nounwind sspstrong uwtable
define internal void @qdev_class_add_property(ptr noundef %klass, ptr noundef %name, ptr noundef %prop) #0 {
entry:
  %klass.addr = alloca ptr, align 8
  %name.addr = alloca ptr, align 8
  %prop.addr = alloca ptr, align 8
  %oc = alloca ptr, align 8
  %op = alloca ptr, align 8
  store ptr %klass, ptr %klass.addr, align 8
  store ptr %name, ptr %name.addr, align 8
  store ptr %prop, ptr %prop.addr, align 8
  %0 = load ptr, ptr %klass.addr, align 8
  store ptr %0, ptr %oc, align 8
  %1 = load ptr, ptr %prop.addr, align 8
  %info = getelementptr inbounds %struct.Property, ptr %1, i32 0, i32 1
  %2 = load ptr, ptr %info, align 8
  %create = getelementptr inbounds %struct.PropertyInfo, ptr %2, i32 0, i32 6
  %3 = load ptr, ptr %create, align 8
  %tobool = icmp ne ptr %3, null
  br i1 %tobool, label %if.then, label %if.else

if.then:                                          ; preds = %entry
  %4 = load ptr, ptr %prop.addr, align 8
  %info1 = getelementptr inbounds %struct.Property, ptr %4, i32 0, i32 1
  %5 = load ptr, ptr %info1, align 8
  %create2 = getelementptr inbounds %struct.PropertyInfo, ptr %5, i32 0, i32 6
  %6 = load ptr, ptr %create2, align 8
  %7 = load ptr, ptr %oc, align 8
  %8 = load ptr, ptr %name.addr, align 8
  %9 = load ptr, ptr %prop.addr, align 8
  %call = call ptr %6(ptr noundef %7, ptr noundef %8, ptr noundef %9)
  store ptr %call, ptr %op, align 8
  br label %if.end

if.else:                                          ; preds = %entry
  %10 = load ptr, ptr %oc, align 8
  %11 = load ptr, ptr %name.addr, align 8
  %12 = load ptr, ptr %prop.addr, align 8
  %info3 = getelementptr inbounds %struct.Property, ptr %12, i32 0, i32 1
  %13 = load ptr, ptr %info3, align 8
  %name4 = getelementptr inbounds %struct.PropertyInfo, ptr %13, i32 0, i32 0
  %14 = load ptr, ptr %name4, align 8
  %15 = load ptr, ptr %prop.addr, align 8
  %info5 = getelementptr inbounds %struct.Property, ptr %15, i32 0, i32 1
  %16 = load ptr, ptr %info5, align 8
  %call6 = call ptr @field_prop_getter(ptr noundef %16)
  %17 = load ptr, ptr %prop.addr, align 8
  %info7 = getelementptr inbounds %struct.Property, ptr %17, i32 0, i32 1
  %18 = load ptr, ptr %info7, align 8
  %call8 = call ptr @field_prop_setter(ptr noundef %18)
  %19 = load ptr, ptr %prop.addr, align 8
  %info9 = getelementptr inbounds %struct.Property, ptr %19, i32 0, i32 1
  %20 = load ptr, ptr %info9, align 8
  %release = getelementptr inbounds %struct.PropertyInfo, ptr %20, i32 0, i32 9
  %21 = load ptr, ptr %release, align 8
  %22 = load ptr, ptr %prop.addr, align 8
  %call10 = call ptr @object_class_property_add(ptr noundef %10, ptr noundef %11, ptr noundef %14, ptr noundef %call6, ptr noundef %call8, ptr noundef %21, ptr noundef %22)
  store ptr %call10, ptr %op, align 8
  br label %if.end

if.end:                                           ; preds = %if.else, %if.then
  %23 = load ptr, ptr %prop.addr, align 8
  %set_default = getelementptr inbounds %struct.Property, ptr %23, i32 0, i32 5
  %24 = load i8, ptr %set_default, align 8
  %tobool11 = trunc i8 %24 to i1
  br i1 %tobool11, label %if.then12, label %if.end14

if.then12:                                        ; preds = %if.end
  %25 = load ptr, ptr %prop.addr, align 8
  %info13 = getelementptr inbounds %struct.Property, ptr %25, i32 0, i32 1
  %26 = load ptr, ptr %info13, align 8
  %set_default_value = getelementptr inbounds %struct.PropertyInfo, ptr %26, i32 0, i32 5
  %27 = load ptr, ptr %set_default_value, align 8
  %28 = load ptr, ptr %op, align 8
  %29 = load ptr, ptr %prop.addr, align 8
  call void %27(ptr noundef %28, ptr noundef %29)
  br label %if.end14

if.end14:                                         ; preds = %if.then12, %if.end
  %30 = load ptr, ptr %oc, align 8
  %31 = load ptr, ptr %name.addr, align 8
  %32 = load ptr, ptr %prop.addr, align 8
  %info15 = getelementptr inbounds %struct.Property, ptr %32, i32 0, i32 1
  %33 = load ptr, ptr %info15, align 8
  %description = getelementptr inbounds %struct.PropertyInfo, ptr %33, i32 0, i32 1
  %34 = load ptr, ptr %description, align 8
  call void @object_class_property_set_description(ptr noundef %30, ptr noundef %31, ptr noundef %34)
  ret void
}

; Function Attrs: nounwind sspstrong uwtable
define internal void @qdev_class_add_legacy_property(ptr noundef %dc, ptr noundef %prop) #0 {
entry:
  %dc.addr = alloca ptr, align 8
  %prop.addr = alloca ptr, align 8
  %name = alloca ptr, align 8
  %cleanup.dest.slot = alloca i32, align 4
  store ptr %dc, ptr %dc.addr, align 8
  store ptr %prop, ptr %prop.addr, align 8
  store ptr null, ptr %name, align 8
  %0 = load ptr, ptr %prop.addr, align 8
  %info = getelementptr inbounds %struct.Property, ptr %0, i32 0, i32 1
  %1 = load ptr, ptr %info, align 8
  %print = getelementptr inbounds %struct.PropertyInfo, ptr %1, i32 0, i32 4
  %2 = load ptr, ptr %print, align 8
  %tobool = icmp ne ptr %2, null
  br i1 %tobool, label %if.end, label %land.lhs.true

land.lhs.true:                                    ; preds = %entry
  %3 = load ptr, ptr %prop.addr, align 8
  %info1 = getelementptr inbounds %struct.Property, ptr %3, i32 0, i32 1
  %4 = load ptr, ptr %info1, align 8
  %get = getelementptr inbounds %struct.PropertyInfo, ptr %4, i32 0, i32 7
  %5 = load ptr, ptr %get, align 8
  %tobool2 = icmp ne ptr %5, null
  br i1 %tobool2, label %if.then, label %if.end

if.then:                                          ; preds = %land.lhs.true
  store i32 1, ptr %cleanup.dest.slot, align 4
  br label %cleanup

if.end:                                           ; preds = %land.lhs.true, %entry
  %6 = load ptr, ptr %prop.addr, align 8
  %name3 = getelementptr inbounds %struct.Property, ptr %6, i32 0, i32 0
  %7 = load ptr, ptr %name3, align 8
  %call = call noalias ptr (ptr, ...) @g_strdup_printf(ptr noundef @.str.37, ptr noundef %7)
  store ptr %call, ptr %name, align 8
  %8 = load ptr, ptr %dc.addr, align 8
  %9 = load ptr, ptr %name, align 8
  %10 = load ptr, ptr %prop.addr, align 8
  %info4 = getelementptr inbounds %struct.Property, ptr %10, i32 0, i32 1
  %11 = load ptr, ptr %info4, align 8
  %print5 = getelementptr inbounds %struct.PropertyInfo, ptr %11, i32 0, i32 4
  %12 = load ptr, ptr %print5, align 8
  %tobool6 = icmp ne ptr %12, null
  br i1 %tobool6, label %cond.true, label %cond.false

cond.true:                                        ; preds = %if.end
  br label %cond.end

cond.false:                                       ; preds = %if.end
  %13 = load ptr, ptr %prop.addr, align 8
  %info7 = getelementptr inbounds %struct.Property, ptr %13, i32 0, i32 1
  %14 = load ptr, ptr %info7, align 8
  %get8 = getelementptr inbounds %struct.PropertyInfo, ptr %14, i32 0, i32 7
  %15 = load ptr, ptr %get8, align 8
  br label %cond.end

cond.end:                                         ; preds = %cond.false, %cond.true
  %cond = phi ptr [ @qdev_get_legacy_property, %cond.true ], [ %15, %cond.false ]
  %16 = load ptr, ptr %prop.addr, align 8
  %call9 = call ptr @object_class_property_add(ptr noundef %8, ptr noundef %9, ptr noundef @.str.13, ptr noundef %cond, ptr noundef null, ptr noundef null, ptr noundef %16)
  store i32 0, ptr %cleanup.dest.slot, align 4
  br label %cleanup

cleanup:                                          ; preds = %cond.end, %if.then
  call void @g_autoptr_cleanup_generic_gfree(ptr noundef %name)
  %cleanup.dest = load i32, ptr %cleanup.dest.slot, align 4
  switch i32 %cleanup.dest, label %unreachable [
    i32 0, label %cleanup.cont
    i32 1, label %cleanup.cont
  ]

cleanup.cont:                                     ; preds = %cleanup, %cleanup
  ret void

unreachable:                                      ; preds = %cleanup
  unreachable
}

; Function Attrs: nounwind sspstrong uwtable
define dso_local void @device_class_set_props(ptr noundef %dc, ptr noundef %props) #0 {
entry:
  %dc.addr = alloca ptr, align 8
  %props.addr = alloca ptr, align 8
  %prop = alloca ptr, align 8
  store ptr %dc, ptr %dc.addr, align 8
  store ptr %props, ptr %props.addr, align 8
  %0 = load ptr, ptr %props.addr, align 8
  %1 = load ptr, ptr %dc.addr, align 8
  %props_ = getelementptr inbounds %struct.DeviceClass, ptr %1, i32 0, i32 4
  store ptr %0, ptr %props_, align 8
  %2 = load ptr, ptr %props.addr, align 8
  store ptr %2, ptr %prop, align 8
  br label %for.cond

for.cond:                                         ; preds = %for.inc, %entry
  %3 = load ptr, ptr %prop, align 8
  %tobool = icmp ne ptr %3, null
  br i1 %tobool, label %land.rhs, label %land.end

land.rhs:                                         ; preds = %for.cond
  %4 = load ptr, ptr %prop, align 8
  %name = getelementptr inbounds %struct.Property, ptr %4, i32 0, i32 0
  %5 = load ptr, ptr %name, align 8
  %tobool1 = icmp ne ptr %5, null
  br label %land.end

land.end:                                         ; preds = %land.rhs, %for.cond
  %6 = phi i1 [ false, %for.cond ], [ %tobool1, %land.rhs ]
  br i1 %6, label %for.body, label %for.end

for.body:                                         ; preds = %land.end
  %7 = load ptr, ptr %dc.addr, align 8
  %8 = load ptr, ptr %prop, align 8
  call void @qdev_class_add_legacy_property(ptr noundef %7, ptr noundef %8)
  %9 = load ptr, ptr %dc.addr, align 8
  %10 = load ptr, ptr %prop, align 8
  %name2 = getelementptr inbounds %struct.Property, ptr %10, i32 0, i32 0
  %11 = load ptr, ptr %name2, align 8
  %12 = load ptr, ptr %prop, align 8
  call void @qdev_class_add_property(ptr noundef %9, ptr noundef %11, ptr noundef %12)
  br label %for.inc

for.inc:                                          ; preds = %for.body
  %13 = load ptr, ptr %prop, align 8
  %incdec.ptr = getelementptr %struct.Property, ptr %13, i32 1
  store ptr %incdec.ptr, ptr %prop, align 8
  br label %for.cond, !llvm.loop !16

for.end:                                          ; preds = %land.end
  ret void
}