; Function Attrs: nounwind sspstrong uwtable
define dso_local void @device_class_set_props(ptr noundef initializes((120, 128)) %dc, ptr noundef %props) local_unnamed_addr #0 {
entry:
  %props_ = getelementptr inbounds nuw i8, ptr %dc, i64 120
  store ptr %props, ptr %props_, align 8
  %tobool.not13 = icmp eq ptr %props, null
  br i1 %tobool.not13, label %for.end, label %land.rhs

land.rhs:                                         ; preds = %entry, %qdev_class_add_property.exit
  %prop.014 = phi ptr [ %incdec.ptr, %qdev_class_add_property.exit ], [ %props, %entry ]
  %0 = load ptr, ptr %prop.014, align 8
  %tobool1.not = icmp eq ptr %0, null
  br i1 %tobool1.not, label %for.end, label %for.body

for.body:                                         ; preds = %land.rhs
  %info.i = getelementptr inbounds nuw i8, ptr %prop.014, i64 8
  %1 = load ptr, ptr %info.i, align 8
  %print.i = getelementptr inbounds nuw i8, ptr %1, i64 32
  %2 = load ptr, ptr %print.i, align 8
  %tobool.not.i = icmp eq ptr %2, null
  br i1 %tobool.not.i, label %land.lhs.true.i, label %if.end.i

land.lhs.true.i:                                  ; preds = %for.body
  %get.i = getelementptr inbounds nuw i8, ptr %1, i64 56
  %3 = load ptr, ptr %get.i, align 8
  %tobool2.not.i = icmp eq ptr %3, null
  br i1 %tobool2.not.i, label %if.end.i, label %qdev_class_add_legacy_property.exit

if.end.i:                                         ; preds = %land.lhs.true.i, %for.body
  %call.i = tail call noalias ptr (ptr, ...) @g_strdup_printf(ptr noundef nonnull @.str.37, ptr noundef nonnull %0) #9
  %4 = load ptr, ptr %info.i, align 8
  %print5.i = getelementptr inbounds nuw i8, ptr %4, i64 32
  %5 = load ptr, ptr %print5.i, align 8
  %tobool6.not.i = icmp eq ptr %5, null
  br i1 %tobool6.not.i, label %cond.false.i, label %cond.end.i

cond.false.i:                                     ; preds = %if.end.i
  %get8.i = getelementptr inbounds nuw i8, ptr %4, i64 56
  %6 = load ptr, ptr %get8.i, align 8
  br label %cond.end.i

cond.end.i:                                       ; preds = %cond.false.i, %if.end.i
  %cond.i = phi ptr [ %6, %cond.false.i ], [ @qdev_get_legacy_property, %if.end.i ]
  %call9.i = tail call ptr @object_class_property_add(ptr noundef %dc, ptr noundef %call.i, ptr noundef nonnull @.str.13, ptr noundef %cond.i, ptr noundef null, ptr noundef null, ptr noundef nonnull %prop.014) #9
  br label %qdev_class_add_legacy_property.exit

qdev_class_add_legacy_property.exit:              ; preds = %land.lhs.true.i, %cond.end.i
  %name.0.i = phi ptr [ %call.i, %cond.end.i ], [ null, %land.lhs.true.i ]
  tail call void @g_free(ptr noundef %name.0.i) #9
  %7 = load ptr, ptr %prop.014, align 8
  %8 = load ptr, ptr %info.i, align 8
  %create.i = getelementptr inbounds nuw i8, ptr %8, i64 48
  %9 = load ptr, ptr %create.i, align 8
  %tobool.not.i10 = icmp eq ptr %9, null
  br i1 %tobool.not.i10, label %if.else.i, label %if.then.i

if.then.i:                                        ; preds = %qdev_class_add_legacy_property.exit
  %call.i11 = tail call ptr %9(ptr noundef %dc, ptr noundef %7, ptr noundef nonnull %prop.014) #9
  br label %if.end.i12

if.else.i:                                        ; preds = %qdev_class_add_legacy_property.exit
  %10 = load ptr, ptr %8, align 8
  %11 = getelementptr i8, ptr %8, i64 56
  %.val.i = load ptr, ptr %11, align 8
  %tobool.not.i.i = icmp eq ptr %.val.i, null
  %cond.i.i = select i1 %tobool.not.i.i, ptr null, ptr @field_prop_get
  %12 = getelementptr i8, ptr %8, i64 64
  %.val16.i = load ptr, ptr %12, align 8
  %tobool.not.i17.i = icmp eq ptr %.val16.i, null
  %cond.i18.i = select i1 %tobool.not.i17.i, ptr null, ptr @field_prop_set
  %release.i = getelementptr inbounds nuw i8, ptr %8, i64 72
  %13 = load ptr, ptr %release.i, align 8
  %call10.i = tail call ptr @object_class_property_add(ptr noundef %dc, ptr noundef %7, ptr noundef %10, ptr noundef %cond.i.i, ptr noundef %cond.i18.i, ptr noundef %13, ptr noundef nonnull %prop.014) #9
  br label %if.end.i12

if.end.i12:                                       ; preds = %if.else.i, %if.then.i
  %op.0.i = phi ptr [ %call.i11, %if.then.i ], [ %call10.i, %if.else.i ]
  %set_default.i = getelementptr inbounds nuw i8, ptr %prop.014, i64 40
  %14 = load i8, ptr %set_default.i, align 8
  %tobool11.i = trunc i8 %14 to i1
  br i1 %tobool11.i, label %if.then12.i, label %qdev_class_add_property.exit

if.then12.i:                                      ; preds = %if.end.i12
  %15 = load ptr, ptr %info.i, align 8
  %set_default_value.i = getelementptr inbounds nuw i8, ptr %15, i64 40
  %16 = load ptr, ptr %set_default_value.i, align 8
  tail call void %16(ptr noundef %op.0.i, ptr noundef nonnull %prop.014) #9
  br label %qdev_class_add_property.exit

qdev_class_add_property.exit:                     ; preds = %if.end.i12, %if.then12.i
  %17 = load ptr, ptr %info.i, align 8
  %description.i = getelementptr inbounds nuw i8, ptr %17, i64 8
  %18 = load ptr, ptr %description.i, align 8
  tail call void @object_class_property_set_description(ptr noundef %dc, ptr noundef %7, ptr noundef %18) #9
  %incdec.ptr = getelementptr i8, ptr %prop.014, i64 88
  %tobool.not = icmp eq ptr %incdec.ptr, null
  br i1 %tobool.not, label %for.end, label %land.rhs, !llvm.loop !25

for.end:                                          ; preds = %land.rhs, %qdev_class_add_property.exit, %entry
  ret void
}